ccopy_reg
_reconstructor
p1
(cDataObject
DataObject
p2
c__builtin__
object
p3
NtRp4
(dp5
S'textFields'
p6
(lp7
g1
(cTextField
TextField
p8
g3
NtRp9
(dp10
S'body'
p11
S'jkjksjaflsdfjds;f'
p12
sS'symbol_body'
p13
(lp14
sS'font_height'
p15
I17
sS'maxWidth'
p16
I44
sS'char_width'
p17
I9
sS'lines'
p18
(lp19
g12
asS'coordinates'
p20
(I100
I100
tp21
sS'cursor'
p22
g1
(cCursor
Cursor
p23
g3
NtRp24
(dp25
S'location2'
p26
I0
sS'data'
p27
g9
sS'location'
p28
I17
sbsS'shape'
p29
(I400
I200
tp30
sS'maxHeight'
p31
I11
sS'first_line'
p32
I0
sS'font'
p33
(S'monospace'
I15
tp34
sS'first_dirt'
p35
I0
sbag1
(g8
g3
NtRp36
(dp37
g11
S'kjlkjdflHjlkjklksjflksdjflsdj ddsdfdd dddddddddddddd\rdfsdfsdfsd\r\rdfsdfdslkjdslkj'
p38
sg13
(lp39
sg15
I17
sg16
I44
sg17
I9
sg18
(lp40
S'kjlkjdflHjlkjklksjflksdjflsdj ddsdfdd '
p41
aS'dddddddddddddd '
p42
aS'dfsdfsdfsd '
p43
aS' '
aS'dfsdfdslkjdslkj'
p44
asg20
g21
sg22
g1
(g23
g3
NtRp45
(dp46
g26
I12
sg27
g36
sg28
I12
sbsg29
g30
sg31
I11
sg32
I0
sg33
g34
sg35
I0
sbasb.